target datalayout = "e-m:e-p270:32:32-p271:32:32-p272:64:64-i64:64-i128:128-f80:128-n8:16:32:64-S128"
target triple = "x86_64-pc-linux-gnu"

%"class.pxrInternal_v0_24__pxrReserved__::TfToken" = type { %"class.pxrInternal_v0_24__pxrReserved__::TfPointerAndBits" }
%"class.pxrInternal_v0_24__pxrReserved__::TfPointerAndBits" = type { ptr }
%struct.pxr_nc_1_0_ColorSpaceM33Descriptor = type { ptr, %struct.pxr_nc_1_0_M33f, float, float }
%struct.pxr_nc_1_0_M33f = type { [9 x float] }
%"class.pxrInternal_v0_24__pxrReserved__::GfColorSpace" = type { %"class.std::shared_ptr" }
%"class.std::shared_ptr" = type { %"class.std::__shared_ptr" }
%"class.std::__shared_ptr" = type { ptr, %"class.std::__shared_count" }
%"class.std::__shared_count" = type { ptr }
%"struct.pxrInternal_v0_24__pxrReserved__::GfColorSpace::_Data" = type { ptr }
%"struct.pxrInternal_v0_24__pxrReserved__::TfToken::_Rep" = type { %"struct.std::atomic.9", i32, i64, %"class.std::__cxx11::basic_string", ptr }
%"struct.std::atomic.9" = type { %"struct.std::__atomic_base.10" }
%"struct.std::__atomic_base.10" = type { i32 }
%"class.std::__cxx11::basic_string" = type { %"struct.std::__cxx11::basic_string<char>::_Alloc_hider", i64, %union.anon }
%"struct.std::__cxx11::basic_string<char>::_Alloc_hider" = type { ptr }
%union.anon = type { i64, [8 x i8] }
%"class.pxrInternal_v0_24__pxrReserved__::GfMatrix3f" = type { %"class.pxrInternal_v0_24__pxrReserved__::GfMatrixData" }
%"class.pxrInternal_v0_24__pxrReserved__::GfMatrixData" = type { [9 x float] }

; Function Attrs: mustprogress nounwind uwtable
define linkonce_odr noundef i64 @_ZN32pxrInternal_v0_24__pxrReserved__16TfPointerAndBitsIKNS_7TfToken4_RepEE9_GetAlignEv() #2 comdat align 2 {
  ret i64 8
}

; Function Attrs: noreturn nounwind uwtable
define linkonce_odr hidden void @__clang_call_terminate(ptr noundef %0) #10 comdat {
  %2 = call ptr @__cxa_begin_catch(ptr %0) #9
  call void @_ZSt9terminatev() #14
  unreachable
}

; Function Attrs: mustprogress nounwind uwtable
define linkonce_odr noundef i64 @_ZNK32pxrInternal_v0_24__pxrReserved__16TfPointerAndBitsIKNS_7TfToken4_RepEE11GetMaxValueEv(ptr noundef nonnull align 8 dereferenceable(8) %0) #2 comdat align 2 {
  %2 = alloca ptr, align 8
  store ptr %0, ptr %2, align 8
  %3 = call noundef i64 @_ZN32pxrInternal_v0_24__pxrReserved__16TfPointerAndBitsIKNS_7TfToken4_RepEE9_GetAlignEv() #9
  %4 = sub i64 %3, 1
  ret i64 %4
}

; Function Attrs: mustprogress nounwind uwtable
define linkonce_odr noundef ptr @_ZNK32pxrInternal_v0_24__pxrReserved__16TfPointerAndBitsIKNS_7TfToken4_RepEE6_AsPtrEm(ptr noundef nonnull align 8 dereferenceable(8) %0, i64 noundef %1) #2 comdat align 2 {
  %3 = alloca ptr, align 8
  %4 = alloca i64, align 8
  store ptr %0, ptr %3, align 8
  store i64 %1, ptr %4, align 8
  %5 = load i64, ptr %4, align 8
  %6 = inttoptr i64 %5 to ptr
  ret ptr %6
}

; Function Attrs: mustprogress nounwind uwtable
define linkonce_odr noundef i64 @_ZNK32pxrInternal_v0_24__pxrReserved__16TfPointerAndBitsIKNS_7TfToken4_RepEE11_GetBitMaskEv(ptr noundef nonnull align 8 dereferenceable(8) %0) #2 comdat align 2 personality ptr @__gxx_personality_v0 {
  %2 = alloca ptr, align 8
  store ptr %0, ptr %2, align 8
  %3 = load ptr, ptr %2, align 8
  %4 = invoke noundef i64 @_ZNK32pxrInternal_v0_24__pxrReserved__16TfPointerAndBitsIKNS_7TfToken4_RepEE11GetMaxValueEv(ptr noundef nonnull align 8 dereferenceable(8) %3)
          to label %5 unwind label %6

5:                                                ; preds = %1
  ret i64 %4

6:                                                ; preds = %1
  %7 = landingpad { ptr, i32 }
          catch ptr null
  %8 = extractvalue { ptr, i32 } %7, 0
  call void @__clang_call_terminate(ptr %8) #14
  unreachable
}

; Function Attrs: mustprogress nounwind uwtable
define linkonce_odr noundef i64 @_ZNK32pxrInternal_v0_24__pxrReserved__16TfPointerAndBitsIKNS_7TfToken4_RepEE6_AsIntEPS3_(ptr noundef nonnull align 8 dereferenceable(8) %0, ptr noundef %1) #2 comdat align 2 {
  %3 = alloca ptr, align 8
  %4 = alloca ptr, align 8
  store ptr %0, ptr %3, align 8
  store ptr %1, ptr %4, align 8
  %5 = load ptr, ptr %4, align 8
  %6 = ptrtoint ptr %5 to i64
  ret i64 %6
}

; Function Attrs: mustprogress nounwind uwtable
define linkonce_odr noundef ptr @_ZNKSt12__shared_ptrIN32pxrInternal_v0_24__pxrReserved__12GfColorSpace5_DataELN9__gnu_cxx12_Lock_policyE2EE3getEv(ptr noundef nonnull align 8 dereferenceable(16) %0) #2 comdat align 2 {
  %2 = alloca ptr, align 8
  store ptr %0, ptr %2, align 8
  %3 = load ptr, ptr %2, align 8
  %4 = getelementptr inbounds nuw %"class.std::__shared_ptr", ptr %3, i32 0, i32 0
  %5 = load ptr, ptr %4, align 8
  ret ptr %5
}

; Function Attrs: mustprogress nounwind uwtable
define linkonce_odr noundef ptr @_ZNK32pxrInternal_v0_24__pxrReserved__16TfPointerAndBitsIKNS_7TfToken4_RepEE7_GetPtrEv(ptr noundef nonnull align 8 dereferenceable(8) %0) #2 comdat align 2 {
  %2 = alloca ptr, align 8
  store ptr %0, ptr %2, align 8
  %3 = load ptr, ptr %2, align 8
  %4 = getelementptr inbounds nuw %"class.pxrInternal_v0_24__pxrReserved__::TfPointerAndBits", ptr %3, i32 0, i32 0
  %5 = load ptr, ptr %4, align 8
  %6 = call noundef i64 @_ZNK32pxrInternal_v0_24__pxrReserved__16TfPointerAndBitsIKNS_7TfToken4_RepEE6_AsIntEPS3_(ptr noundef nonnull align 8 dereferenceable(8) %3, ptr noundef %5) #9
  %7 = call noundef i64 @_ZNK32pxrInternal_v0_24__pxrReserved__16TfPointerAndBitsIKNS_7TfToken4_RepEE11_GetBitMaskEv(ptr noundef nonnull align 8 dereferenceable(8) %3) #9
  %8 = xor i64 %7, -1
  %9 = and i64 %6, %8
  %10 = call noundef ptr @_ZNK32pxrInternal_v0_24__pxrReserved__16TfPointerAndBitsIKNS_7TfToken4_RepEE6_AsPtrEm(ptr noundef nonnull align 8 dereferenceable(8) %3, i64 noundef %9) #9
  ret ptr %10
}

; Function Attrs: mustprogress nounwind uwtable
define linkonce_odr void @_ZNSt12__shared_ptrIN32pxrInternal_v0_24__pxrReserved__12GfColorSpace5_DataELN9__gnu_cxx12_Lock_policyE2EE31_M_enable_shared_from_this_withIS2_S2_EENSt9enable_ifIXntsr15__has_esft_baseIT0_EE5valueEvE4typeEPT_(ptr noundef nonnull align 8 dereferenceable(16) %0, ptr noundef %1) #2 comdat align 2 {
  %3 = alloca ptr, align 8
  %4 = alloca ptr, align 8
  store ptr %0, ptr %3, align 8
  store ptr %1, ptr %4, align 8
  ret void
}

; Function Attrs: mustprogress uwtable
define linkonce_odr void @_ZNSt14__shared_countILN9__gnu_cxx12_Lock_policyE2EEC2IPN32pxrInternal_v0_24__pxrReserved__12GfColorSpace5_DataEEET_St17integral_constantIbLb0EE(ptr noundef nonnull align 8 dereferenceable(8) %0, ptr noundef %1) unnamed_addr #0 comdat align 2 {
  %3 = alloca ptr, align 8
  %4 = alloca ptr, align 8
  store ptr %0, ptr %3, align 8
  store ptr %1, ptr %4, align 8
  %5 = load ptr, ptr %3, align 8
  %6 = load ptr, ptr %4, align 8
  call void @_ZNSt14__shared_countILN9__gnu_cxx12_Lock_policyE2EEC2IPN32pxrInternal_v0_24__pxrReserved__12GfColorSpace5_DataEEET_(ptr noundef nonnull align 8 dereferenceable(8) %5, ptr noundef %6)
  ret void
}

; Function Attrs: mustprogress nounwind uwtable
define linkonce_odr noundef ptr @_ZNKSt19__shared_ptr_accessIN32pxrInternal_v0_24__pxrReserved__12GfColorSpace5_DataELN9__gnu_cxx12_Lock_policyE2ELb0ELb0EE6_M_getEv(ptr noundef nonnull align 1 dereferenceable(1) %0) #2 comdat align 2 {
  %2 = alloca ptr, align 8
  store ptr %0, ptr %2, align 8
  %3 = load ptr, ptr %2, align 8
  %4 = call noundef ptr @_ZNKSt12__shared_ptrIN32pxrInternal_v0_24__pxrReserved__12GfColorSpace5_DataELN9__gnu_cxx12_Lock_policyE2EE3getEv(ptr noundef nonnull align 8 dereferenceable(16) %3) #9
  ret ptr %4
}

; Function Attrs: mustprogress nounwind uwtable
define linkonce_odr noundef ptr @_ZNK32pxrInternal_v0_24__pxrReserved__12GfMatrixDataIfLi3ELi3EEixEi(ptr noundef nonnull align 4 dereferenceable(36) %0, i32 noundef %1) #2 comdat align 2 {
  %3 = alloca ptr, align 8
  %4 = alloca i32, align 4
  store ptr %0, ptr %3, align 8
  store i32 %1, ptr %4, align 4
  %5 = load ptr, ptr %3, align 8
  %6 = getelementptr inbounds nuw %"class.pxrInternal_v0_24__pxrReserved__::GfMatrixData", ptr %5, i32 0, i32 0
  %7 = getelementptr inbounds [9 x float], ptr %6, i64 0, i64 0
  %8 = load i32, ptr %4, align 4
  %9 = mul nsw i32 %8, 3
  %10 = sext i32 %9 to i64
  %11 = getelementptr inbounds float, ptr %7, i64 %10
  ret ptr %11
}

; Function Attrs: mustprogress nounwind uwtable
define linkonce_odr noundef ptr @_ZNK32pxrInternal_v0_24__pxrReserved__16TfPointerAndBitsIKNS_7TfToken4_RepEE3GetEv(ptr noundef nonnull align 8 dereferenceable(8) %0) #2 comdat align 2 {
  %2 = alloca ptr, align 8
  store ptr %0, ptr %2, align 8
  %3 = load ptr, ptr %2, align 8
  %4 = call noundef ptr @_ZNK32pxrInternal_v0_24__pxrReserved__16TfPointerAndBitsIKNS_7TfToken4_RepEE7_GetPtrEv(ptr noundef nonnull align 8 dereferenceable(8) %3) #9
  ret ptr %4
}

; Function Attrs: mustprogress uwtable
define linkonce_odr void @_ZNSt12__shared_ptrIN32pxrInternal_v0_24__pxrReserved__12GfColorSpace5_DataELN9__gnu_cxx12_Lock_policyE2EEC2IS2_vEEPT_(ptr noundef nonnull align 8 dereferenceable(16) %0, ptr noundef %1) unnamed_addr #0 comdat align 2 {
  %3 = alloca ptr, align 8
  %4 = alloca ptr, align 8
  store ptr %0, ptr %3, align 8
  store ptr %1, ptr %4, align 8
  %5 = load ptr, ptr %3, align 8
  %6 = getelementptr inbounds nuw %"class.std::__shared_ptr", ptr %5, i32 0, i32 0
  %7 = load ptr, ptr %4, align 8
  store ptr %7, ptr %6, align 8
  %8 = getelementptr inbounds nuw %"class.std::__shared_ptr", ptr %5, i32 0, i32 1
  %9 = load ptr, ptr %4, align 8
  call void @_ZNSt14__shared_countILN9__gnu_cxx12_Lock_policyE2EEC2IPN32pxrInternal_v0_24__pxrReserved__12GfColorSpace5_DataEEET_St17integral_constantIbLb0EE(ptr noundef nonnull align 8 dereferenceable(8) %8, ptr noundef %9)
  %10 = load ptr, ptr %4, align 8
  call void @_ZNSt12__shared_ptrIN32pxrInternal_v0_24__pxrReserved__12GfColorSpace5_DataELN9__gnu_cxx12_Lock_policyE2EE31_M_enable_shared_from_this_withIS2_S2_EENSt9enable_ifIXntsr15__has_esft_baseIT0_EE5valueEvE4typeEPT_(ptr noundef nonnull align 8 dereferenceable(16) %5, ptr noundef %10) #9
  ret void
}

; Function Attrs: mustprogress nounwind uwtable
define linkonce_odr noundef ptr @_ZNKSt19__shared_ptr_accessIN32pxrInternal_v0_24__pxrReserved__12GfColorSpace5_DataELN9__gnu_cxx12_Lock_policyE2ELb0ELb0EEptEv(ptr noundef nonnull align 1 dereferenceable(1) %0) #2 comdat align 2 {
  %2 = alloca ptr, align 8
  store ptr %0, ptr %2, align 8
  %3 = load ptr, ptr %2, align 8
  %4 = call noundef ptr @_ZNKSt19__shared_ptr_accessIN32pxrInternal_v0_24__pxrReserved__12GfColorSpace5_DataELN9__gnu_cxx12_Lock_policyE2ELb0ELb0EE6_M_getEv(ptr noundef nonnull align 1 dereferenceable(1) %3) #9
  ret ptr %4
}

; Function Attrs: mustprogress uwtable
define linkonce_odr noundef ptr @_ZNK32pxrInternal_v0_24__pxrReserved__10GfMatrix3fixEi(ptr noundef nonnull align 4 dereferenceable(36) %0, i32 noundef %1) #0 comdat align 2 {
  %3 = alloca ptr, align 8
  %4 = alloca i32, align 4
  store ptr %0, ptr %3, align 8
  store i32 %1, ptr %4, align 4
  %5 = load ptr, ptr %3, align 8
  %6 = getelementptr inbounds nuw %"class.pxrInternal_v0_24__pxrReserved__::GfMatrix3f", ptr %5, i32 0, i32 0
  %7 = load i32, ptr %4, align 4
  %8 = call noundef ptr @_ZNK32pxrInternal_v0_24__pxrReserved__12GfMatrixDataIfLi3ELi3EEixEi(ptr noundef nonnull align 4 dereferenceable(36) %6, i32 noundef %7)
  ret ptr %8
}

; Function Attrs: mustprogress uwtable
define linkonce_odr noundef nonnull align 8 dereferenceable(32) ptr @_ZNK32pxrInternal_v0_24__pxrReserved__7TfToken9GetStringB5cxx11Ev(ptr noundef nonnull align 8 dereferenceable(8) %0) #0 comdat align 2 {
  %2 = alloca ptr, align 8
  %3 = alloca ptr, align 8
  store ptr %0, ptr %2, align 8
  %4 = load ptr, ptr %2, align 8
  %5 = getelementptr inbounds nuw %"class.pxrInternal_v0_24__pxrReserved__::TfToken", ptr %4, i32 0, i32 0
  %6 = call noundef ptr @_ZNK32pxrInternal_v0_24__pxrReserved__16TfPointerAndBitsIKNS_7TfToken4_RepEE3GetEv(ptr noundef nonnull align 8 dereferenceable(8) %5) #9
  store ptr %6, ptr %3, align 8
  %7 = load ptr, ptr %3, align 8
  %8 = icmp ne ptr %7, null
  br i1 %8, label %9, label %12

9:                                                ; preds = %1
  %10 = load ptr, ptr %3, align 8
  %11 = getelementptr inbounds nuw %"struct.pxrInternal_v0_24__pxrReserved__::TfToken::_Rep", ptr %10, i32 0, i32 3
  br label %14

12:                                               ; preds = %1
  %13 = call noundef nonnull align 8 dereferenceable(32) ptr @_ZN32pxrInternal_v0_24__pxrReserved__7TfToken15_GetEmptyStringB5cxx11Ev()
  br label %14

14:                                               ; preds = %12, %9
  %15 = phi ptr [ %11, %9 ], [ %13, %12 ]
  ret ptr %15
}

; Function Attrs: mustprogress uwtable
define linkonce_odr void @_ZNSt10shared_ptrIN32pxrInternal_v0_24__pxrReserved__12GfColorSpace5_DataEEC2IS2_vEEPT_(ptr noundef nonnull align 8 dereferenceable(16) %0, ptr noundef %1) unnamed_addr #0 comdat align 2 {
  %3 = alloca ptr, align 8
  %4 = alloca ptr, align 8
  store ptr %0, ptr %3, align 8
  store ptr %1, ptr %4, align 8
  %5 = load ptr, ptr %3, align 8
  %6 = load ptr, ptr %4, align 8
  call void @_ZNSt12__shared_ptrIN32pxrInternal_v0_24__pxrReserved__12GfColorSpace5_DataELN9__gnu_cxx12_Lock_policyE2EEC2IS2_vEEPT_(ptr noundef nonnull align 8 dereferenceable(16) %5, ptr noundef %6)
  ret void
}

; Function Attrs: mustprogress nounwind uwtable
define linkonce_odr void @_ZN32pxrInternal_v0_24__pxrReserved__12GfColorSpace5_DataC2Ev(ptr noundef nonnull align 8 dereferenceable(8) %0) unnamed_addr #2 comdat align 2 {
  %2 = alloca ptr, align 8
  store ptr %0, ptr %2, align 8
  %3 = load ptr, ptr %2, align 8
  %4 = getelementptr inbounds nuw %"struct.pxrInternal_v0_24__pxrReserved__::GfColorSpace::_Data", ptr %3, i32 0, i32 0
  store ptr null, ptr %4, align 8
  ret void
}

; Function Attrs: mustprogress uwtable
define void @_ZN32pxrInternal_v0_24__pxrReserved__12GfColorSpaceC2ERKNS_7TfTokenERKNS_10GfMatrix3fEff(ptr noundef nonnull align 8 dereferenceable(16) %0, ptr noundef nonnull align 8 dereferenceable(8) %1, ptr noundef nonnull align 4 dereferenceable(36) %2, float noundef %3, float noundef %4) unnamed_addr #0 align 2 personality ptr @__gxx_personality_v0 {
  %6 = alloca ptr, align 8
  %7 = alloca ptr, align 8
  %8 = alloca ptr, align 8
  %9 = alloca float, align 4
  %10 = alloca float, align 4
  %11 = alloca %struct.pxr_nc_1_0_ColorSpaceM33Descriptor, align 8
  %12 = alloca ptr, align 8
  %13 = alloca i32, align 4
  store ptr %0, ptr %6, align 8
  store ptr %1, ptr %7, align 8
  store ptr %2, ptr %8, align 8
  store float %3, ptr %9, align 4
  store float %4, ptr %10, align 4
  %14 = load ptr, ptr %6, align 8
  %15 = getelementptr inbounds nuw %"class.pxrInternal_v0_24__pxrReserved__::GfColorSpace", ptr %14, i32 0, i32 0
  %16 = call noalias noundef nonnull ptr @_Znwm(i64 noundef 8) #15
  call void @llvm.memset.p0.i64(ptr align 8 %16, i8 0, i64 8, i1 false)
  call void @_ZN32pxrInternal_v0_24__pxrReserved__12GfColorSpace5_DataC2Ev(ptr noundef nonnull align 8 dereferenceable(8) %16) #9
  call void @_ZNSt10shared_ptrIN32pxrInternal_v0_24__pxrReserved__12GfColorSpace5_DataEEC2IS2_vEEPT_(ptr noundef nonnull align 8 dereferenceable(16) %15, ptr noundef %16)
  %17 = load ptr, ptr %7, align 8
  %18 = invoke noundef nonnull align 8 dereferenceable(32) ptr @_ZNK32pxrInternal_v0_24__pxrReserved__7TfToken9GetStringB5cxx11Ev(ptr noundef nonnull align 8 dereferenceable(8) %17)
          to label %19 unwind label %103

19:                                               ; preds = %5
  %20 = call noundef ptr @_ZNKSt7__cxx1112basic_stringIcSt11char_traitsIcESaIcEE5c_strEv(ptr noundef nonnull align 8 dereferenceable(32) %18) #9
  %21 = getelementptr inbounds nuw %struct.pxr_nc_1_0_ColorSpaceM33Descriptor, ptr %11, i32 0, i32 0
  store ptr %20, ptr %21, align 8
  %22 = load ptr, ptr %8, align 8
  %23 = invoke noundef ptr @_ZNK32pxrInternal_v0_24__pxrReserved__10GfMatrix3fixEi(ptr noundef nonnull align 4 dereferenceable(36) %22, i32 noundef 0)
          to label %24 unwind label %103

24:                                               ; preds = %19
  %25 = getelementptr inbounds float, ptr %23, i64 0
  %26 = load float, ptr %25, align 4
  %27 = getelementptr inbounds nuw %struct.pxr_nc_1_0_ColorSpaceM33Descriptor, ptr %11, i32 0, i32 1
  %28 = getelementptr inbounds nuw %struct.pxr_nc_1_0_M33f, ptr %27, i32 0, i32 0
  %29 = getelementptr inbounds [9 x float], ptr %28, i64 0, i64 0
  store float %26, ptr %29, align 8
  %30 = load ptr, ptr %8, align 8
  %31 = invoke noundef ptr @_ZNK32pxrInternal_v0_24__pxrReserved__10GfMatrix3fixEi(ptr noundef nonnull align 4 dereferenceable(36) %30, i32 noundef 0)
          to label %32 unwind label %103

32:                                               ; preds = %24
  %33 = getelementptr inbounds float, ptr %31, i64 1
  %34 = load float, ptr %33, align 4
  %35 = getelementptr inbounds nuw %struct.pxr_nc_1_0_ColorSpaceM33Descriptor, ptr %11, i32 0, i32 1
  %36 = getelementptr inbounds nuw %struct.pxr_nc_1_0_M33f, ptr %35, i32 0, i32 0
  %37 = getelementptr inbounds [9 x float], ptr %36, i64 0, i64 1
  store float %34, ptr %37, align 4
  %38 = load ptr, ptr %8, align 8
  %39 = invoke noundef ptr @_ZNK32pxrInternal_v0_24__pxrReserved__10GfMatrix3fixEi(ptr noundef nonnull align 4 dereferenceable(36) %38, i32 noundef 0)
          to label %40 unwind label %103

40:                                               ; preds = %32
  %41 = getelementptr inbounds float, ptr %39, i64 2
  %42 = load float, ptr %41, align 4
  %43 = getelementptr inbounds nuw %struct.pxr_nc_1_0_ColorSpaceM33Descriptor, ptr %11, i32 0, i32 1
  %44 = getelementptr inbounds nuw %struct.pxr_nc_1_0_M33f, ptr %43, i32 0, i32 0
  %45 = getelementptr inbounds [9 x float], ptr %44, i64 0, i64 2
  store float %42, ptr %45, align 8
  %46 = load ptr, ptr %8, align 8
  %47 = invoke noundef ptr @_ZNK32pxrInternal_v0_24__pxrReserved__10GfMatrix3fixEi(ptr noundef nonnull align 4 dereferenceable(36) %46, i32 noundef 1)
          to label %48 unwind label %103

48:                                               ; preds = %40
  %49 = getelementptr inbounds float, ptr %47, i64 0
  %50 = load float, ptr %49, align 4
  %51 = getelementptr inbounds nuw %struct.pxr_nc_1_0_ColorSpaceM33Descriptor, ptr %11, i32 0, i32 1
  %52 = getelementptr inbounds nuw %struct.pxr_nc_1_0_M33f, ptr %51, i32 0, i32 0
  %53 = getelementptr inbounds [9 x float], ptr %52, i64 0, i64 3
  store float %50, ptr %53, align 4
  %54 = load ptr, ptr %8, align 8
  %55 = invoke noundef ptr @_ZNK32pxrInternal_v0_24__pxrReserved__10GfMatrix3fixEi(ptr noundef nonnull align 4 dereferenceable(36) %54, i32 noundef 1)
          to label %56 unwind label %103

56:                                               ; preds = %48
  %57 = getelementptr inbounds float, ptr %55, i64 1
  %58 = load float, ptr %57, align 4
  %59 = getelementptr inbounds nuw %struct.pxr_nc_1_0_ColorSpaceM33Descriptor, ptr %11, i32 0, i32 1
  %60 = getelementptr inbounds nuw %struct.pxr_nc_1_0_M33f, ptr %59, i32 0, i32 0
  %61 = getelementptr inbounds [9 x float], ptr %60, i64 0, i64 4
  store float %58, ptr %61, align 8
  %62 = load ptr, ptr %8, align 8
  %63 = invoke noundef ptr @_ZNK32pxrInternal_v0_24__pxrReserved__10GfMatrix3fixEi(ptr noundef nonnull align 4 dereferenceable(36) %62, i32 noundef 1)
          to label %64 unwind label %103

64:                                               ; preds = %56
  %65 = getelementptr inbounds float, ptr %63, i64 2
  %66 = load float, ptr %65, align 4
  %67 = getelementptr inbounds nuw %struct.pxr_nc_1_0_ColorSpaceM33Descriptor, ptr %11, i32 0, i32 1
  %68 = getelementptr inbounds nuw %struct.pxr_nc_1_0_M33f, ptr %67, i32 0, i32 0
  %69 = getelementptr inbounds [9 x float], ptr %68, i64 0, i64 5
  store float %66, ptr %69, align 4
  %70 = load ptr, ptr %8, align 8
  %71 = invoke noundef ptr @_ZNK32pxrInternal_v0_24__pxrReserved__10GfMatrix3fixEi(ptr noundef nonnull align 4 dereferenceable(36) %70, i32 noundef 2)
          to label %72 unwind label %103

72:                                               ; preds = %64
  %73 = getelementptr inbounds float, ptr %71, i64 0
  %74 = load float, ptr %73, align 4
  %75 = getelementptr inbounds nuw %struct.pxr_nc_1_0_ColorSpaceM33Descriptor, ptr %11, i32 0, i32 1
  %76 = getelementptr inbounds nuw %struct.pxr_nc_1_0_M33f, ptr %75, i32 0, i32 0
  %77 = getelementptr inbounds [9 x float], ptr %76, i64 0, i64 6
  store float %74, ptr %77, align 8
  %78 = load ptr, ptr %8, align 8
  %79 = invoke noundef ptr @_ZNK32pxrInternal_v0_24__pxrReserved__10GfMatrix3fixEi(ptr noundef nonnull align 4 dereferenceable(36) %78, i32 noundef 2)
          to label %80 unwind label %103

80:                                               ; preds = %72
  %81 = getelementptr inbounds float, ptr %79, i64 1
  %82 = load float, ptr %81, align 4
  %83 = getelementptr inbounds nuw %struct.pxr_nc_1_0_ColorSpaceM33Descriptor, ptr %11, i32 0, i32 1
  %84 = getelementptr inbounds nuw %struct.pxr_nc_1_0_M33f, ptr %83, i32 0, i32 0
  %85 = getelementptr inbounds [9 x float], ptr %84, i64 0, i64 7
  store float %82, ptr %85, align 4
  %86 = load ptr, ptr %8, align 8
  %87 = invoke noundef ptr @_ZNK32pxrInternal_v0_24__pxrReserved__10GfMatrix3fixEi(ptr noundef nonnull align 4 dereferenceable(36) %86, i32 noundef 2)
          to label %88 unwind label %103

88:                                               ; preds = %80
  %89 = getelementptr inbounds float, ptr %87, i64 2
  %90 = load float, ptr %89, align 4
  %91 = getelementptr inbounds nuw %struct.pxr_nc_1_0_ColorSpaceM33Descriptor, ptr %11, i32 0, i32 1
  %92 = getelementptr inbounds nuw %struct.pxr_nc_1_0_M33f, ptr %91, i32 0, i32 0
  %93 = getelementptr inbounds [9 x float], ptr %92, i64 0, i64 8
  store float %90, ptr %93, align 8
  %94 = load float, ptr %9, align 4
  %95 = getelementptr inbounds nuw %struct.pxr_nc_1_0_ColorSpaceM33Descriptor, ptr %11, i32 0, i32 2
  store float %94, ptr %95, align 4
  %96 = load float, ptr %10, align 4
  %97 = getelementptr inbounds nuw %struct.pxr_nc_1_0_ColorSpaceM33Descriptor, ptr %11, i32 0, i32 3
  store float %96, ptr %97, align 8
  %98 = invoke ptr @pxr_nc_1_0_CreateColorSpaceM33(ptr noundef %11, ptr noundef null)
          to label %99 unwind label %103

99:                                               ; preds = %88
  %100 = getelementptr inbounds nuw %"class.pxrInternal_v0_24__pxrReserved__::GfColorSpace", ptr %14, i32 0, i32 0
  %101 = call noundef ptr @_ZNKSt19__shared_ptr_accessIN32pxrInternal_v0_24__pxrReserved__12GfColorSpace5_DataELN9__gnu_cxx12_Lock_policyE2ELb0ELb0EEptEv(ptr noundef nonnull align 1 dereferenceable(1) %100) #9
  %102 = getelementptr inbounds nuw %"struct.pxrInternal_v0_24__pxrReserved__::GfColorSpace::_Data", ptr %101, i32 0, i32 0
  store ptr %98, ptr %102, align 8
  ret void

103:                                              ; preds = %88, %80, %72, %64, %56, %48, %40, %32, %24, %19, %5
  %104 = landingpad { ptr, i32 }
          cleanup
  %105 = extractvalue { ptr, i32 } %104, 0
  store ptr %105, ptr %12, align 8
  %106 = extractvalue { ptr, i32 } %104, 1
  store i32 %106, ptr %13, align 4
  call void @_ZNSt10shared_ptrIN32pxrInternal_v0_24__pxrReserved__12GfColorSpace5_DataEED2Ev(ptr noundef nonnull align 8 dereferenceable(16) %15) #9
  br label %107

107:                                              ; preds = %103
  %108 = load ptr, ptr %12, align 8
  %109 = load i32, ptr %13, align 4
  %110 = insertvalue { ptr, i32 } poison, ptr %108, 0
  %111 = insertvalue { ptr, i32 } %110, i32 %109, 1
  resume { ptr, i32 } %111
}