; Function Attrs: mustprogress uwtable
define void @_ZN32pxrInternal_v0_24__pxrReserved__12GfColorSpaceC2ERKNS_7TfTokenERKNS_10GfMatrix3fEff(ptr noundef nonnull align 8 dereferenceable(16) initializes((0, 8)) %0, ptr noundef nonnull readonly align 8 captures(none) dereferenceable(8) %1, ptr noundef nonnull readonly align 4 captures(none) dereferenceable(36) %2, float noundef %3, float noundef %4) unnamed_addr #0 align 2 personality ptr @__gxx_personality_v0 {
  %6 = alloca %struct.pxr_nc_1_0_ColorSpaceM33Descriptor, align 8
  %7 = tail call noalias noundef nonnull dereferenceable(8) ptr @_Znwm(i64 noundef 8) #15
  store ptr null, ptr %7, align 8
  store ptr %7, ptr %0, align 8
  %8 = getelementptr inbounds nuw i8, ptr %0, i64 8
  tail call void @_ZNSt14__shared_countILN9__gnu_cxx12_Lock_policyE2EEC2IPN32pxrInternal_v0_24__pxrReserved__12GfColorSpace5_DataEEET_(ptr noundef nonnull align 8 dereferenceable(8) %8, ptr noundef nonnull %7)
  %9 = load ptr, ptr %1, align 8
  %10 = ptrtoint ptr %9 to i64
  %11 = and i64 %10, -8
  %.not.i = icmp eq i64 %11, 0
  br i1 %.not.i, label %15, label %12

12:                                               ; preds = %5
  %13 = inttoptr i64 %11 to ptr
  %14 = getelementptr inbounds nuw i8, ptr %13, i64 16
  br label %17

15:                                               ; preds = %5
  %16 = invoke noundef nonnull align 8 dereferenceable(32) ptr @_ZN32pxrInternal_v0_24__pxrReserved__7TfToken15_GetEmptyStringB5cxx11Ev()
          to label %17 unwind label %51

17:                                               ; preds = %15, %12
  %18 = phi ptr [ %14, %12 ], [ %16, %15 ]
  %19 = tail call noundef ptr @_ZNKSt7__cxx1112basic_stringIcSt11char_traitsIcESaIcEE5c_strEv(ptr noundef nonnull align 8 dereferenceable(32) %18) #16
  store ptr %19, ptr %6, align 8
  %20 = load float, ptr %2, align 4
  %21 = getelementptr inbounds nuw i8, ptr %6, i64 8
  store float %20, ptr %21, align 8
  %22 = getelementptr inbounds nuw i8, ptr %2, i64 4
  %23 = load float, ptr %22, align 4
  %24 = getelementptr inbounds nuw i8, ptr %6, i64 12
  store float %23, ptr %24, align 4
  %25 = getelementptr inbounds nuw i8, ptr %2, i64 8
  %26 = load float, ptr %25, align 4
  %27 = getelementptr inbounds nuw i8, ptr %6, i64 16
  store float %26, ptr %27, align 8
  %28 = getelementptr inbounds nuw i8, ptr %2, i64 12
  %29 = load float, ptr %28, align 4
  %30 = getelementptr inbounds nuw i8, ptr %6, i64 20
  store float %29, ptr %30, align 4
  %31 = getelementptr inbounds nuw i8, ptr %2, i64 16
  %32 = load float, ptr %31, align 4
  %33 = getelementptr inbounds nuw i8, ptr %6, i64 24
  store float %32, ptr %33, align 8
  %34 = getelementptr inbounds nuw i8, ptr %2, i64 20
  %35 = load float, ptr %34, align 4
  %36 = getelementptr inbounds nuw i8, ptr %6, i64 28
  store float %35, ptr %36, align 4
  %37 = getelementptr inbounds nuw i8, ptr %2, i64 24
  %38 = load float, ptr %37, align 4
  %39 = getelementptr inbounds nuw i8, ptr %6, i64 32
  store float %38, ptr %39, align 8
  %40 = getelementptr inbounds nuw i8, ptr %2, i64 28
  %41 = load float, ptr %40, align 4
  %42 = getelementptr inbounds nuw i8, ptr %6, i64 36
  store float %41, ptr %42, align 4
  %43 = getelementptr inbounds nuw i8, ptr %2, i64 32
  %44 = load float, ptr %43, align 4
  %45 = getelementptr inbounds nuw i8, ptr %6, i64 40
  store float %44, ptr %45, align 8
  %46 = getelementptr inbounds nuw i8, ptr %6, i64 44
  store float %3, ptr %46, align 4
  %47 = getelementptr inbounds nuw i8, ptr %6, i64 48
  store float %4, ptr %47, align 8
  %48 = invoke ptr @pxr_nc_1_0_CreateColorSpaceM33(ptr noundef nonnull %6, ptr noundef null)
          to label %49 unwind label %51

49:                                               ; preds = %17
  %50 = load ptr, ptr %0, align 8
  store ptr %48, ptr %50, align 8
  ret void

51:                                               ; preds = %15, %17
  %52 = landingpad { ptr, i32 }
          cleanup
  call void @_ZNSt10shared_ptrIN32pxrInternal_v0_24__pxrReserved__12GfColorSpace5_DataEED2Ev(ptr noundef nonnull align 8 dereferenceable(16) %0) #16
  resume { ptr, i32 } %52
}